; ModuleID = 'bench/curl/original/rename.ll'
source_filename = "bench/curl/original/rename.ll"
target datalayout = "e-m:e-p270:32:32-p271:32:32-p272:64:64-i64:64-i128:128-f80:128-n8:16:32:64-S128"
target triple = "x86_64-pc-linux-gnu"

; Function Attrs: nofree nounwind uwtable
define hidden range(i32 0, 2) i32 @Curl_rename(ptr noundef readonly captures(none) %0, ptr noundef readonly captures(none) %1) local_unnamed_addr #0 {
  %3 = tail call i32 @rename(ptr noundef %0, ptr noundef %1) #2
  %.not = icmp ne i32 %3, 0
  %. = zext i1 %.not to i32
  ret i32 %.
}

; Function Attrs: nofree nounwind
declare noundef i32 @rename(ptr noundef readonly captures(none), ptr noundef readonly captures(none)) local_unnamed_addr #1


!llvm.module.flags = !{!0, !1, !2}

!0 = !{i32 1, !"wchar_size", i32 4}
!1 = !{i32 8, !"PIC Level", i32 2}
!2 = !{i32 7, !"uwtable", i32 2}
